-----BEGIN ENCRYPTED PRIVATE KEY-----
MIIFHDBOBgkqhkiG9w0BBQ0wQTApBgkqhkiG9w0BBQwwHAQIyitN8sxGgO0CAggA
MAwGCCqGSIb3DQIJBQAwFAYIKoZIhvcNAwcECBG16ZcFx5s7BIIEyGICZR36fZll
Iu774CYVwnpcuRTeBtX+61CWNwjfYrg/cIMyVBSXS8tql0ydKIcRRLx9ZwvZTtq5
GnZuOez64N39KFPWkv/XCtbMxS0wYbXYFH2+Zy79XgCOVKJFXsU8uptGpF2THkAd
pnPYEYrQmbdAjIpJb2rlC0svK644QxuKxs6QbohWje0gLZw1XfZ8oB0NzylvGiui
L0t5xbUQviOdEbGIXyk8kFh2CC5WTAj4B9MpRgnDRv6rWZqhk1A8Wc3jFX5MMJQI
AH/g8sOgNNENyJgftAdw9N9VLBp1aCpKwSj6RGZfA7s/lFq64aQn2KRu/sWKIf9X
BMDSt5JfQOqSPk+vP38HaVj2r9NbAATg2LqCg+M5oP6y3k/GuZTD9jtQaJ8UvgzJ
uds6C12giYcUe8lGLa2wWaLtzmbc45Kjki+iiYElXwep+THMak3auf9RB1Zzk3Gr
y8zbRE8/Ok+IMomVqvbWY96LHNoiEOq2f5hUoPrQ+SgJC49P+OuDygHdVUmDf+uG
G0Et89hfwZyUpSNH+0nRF0ISVeIm4CCPMyI4iznE3ZHnBHUiousl0GUuEpISvCUV
H8UgsMXYemPgdd9VwlXE29uFabzNxfE6xs6kiptORRz9yIrOTZYnLwU0WFFDnlYe
AqodgEjFKW0nddJ/Tr1IuNQg+a/L7AzaOatXreTS6uD7tGC7jKzY1IZ/lABWfQX5
SnrJi+rhQNLT3eHPIyFoRH9g5KdqGuYdLlR6f/nV7GOMVrmjNGiPSc59o1KioQRf
a8yNx484Z0PcQ1tSeEHp9arrsyGaTxd4CkaqFmps9qYYflT2qkZH/oyGSsxQ/X7K
Bjin/hHWrZ1Ie4RveBqF71lygBfmkE5a0sGJnMyHqQcGcnW1KL134SRBdFZgM6aK
DqdcB2NsRhf8e0TUfD2X1XDck/Z6VNghCAlgO9Ao2kbu7e7TzI7cxoScK+qwokOq
XN8HzjIeZ/ckybaDHqwfnqAcm9j7/dNvaSsxuXl/H5semcrCXgJceXgb9HvdvKiI
Ohm8lCjq4vNeXrOrMO8z67wKHyP6MYZDEpox5oovhiannKYP0uZ29gh4CH8QRR/J
OqtEI08NKv6zHvD3Ypo/5aEN5wbvIQuYNBxvscnBIQktNgGgdzqAOCIbRl6aTZ4V
eJ3RAcLN285dHZVyCbwQVAgc07VIzTe9W+DNRhN1/nXzoZ2MA5UWI0IHjr/PmwOe
BBQPzZ9qwVwaCbwNxWa8KUbPM3K0cHdZ8ROXbbKqpSUUYJJeAyqjcrb3jHHgH+GK
D7kmkaQIhUaEGznJkp4rizG4zew5WArmycve0VT5H6A5lpV9HNsl0ZNOQjI2a+zq
pzedAhZqXORn4JofUTASeSB3Gj+eUsL2d7URGPh+2HNXri50Gvr144G0VY992OWV
sFhc3LgnEOwjOZzQqEC55MW9r9N2gBPrw2f5Vd6pByXND7k+7FadMYYI3jD4SbhX
z1q7jU7DcnNwlwuLx6oUJJRYsZ3ZHGLzFTD5w+sD2xJqJaSM1V27Cj7mZlm/5P4S
1KS3sJbLqyiCUGv5lel0ifs1nMdEyp8EqrXyTfgf4dGJztoIzWQzAqZrS6TwB0Tb
0WhN6fgf/tWLjdyIZrrDhQ==
-----END ENCRYPTED PRIVATE KEY-----
Certificate:
    Data:
        Version: 3 (0x2)
        Serial Number: 1 (0x1)
        Signature Algorithm: sha256WithRSAEncryption
        Issuer: C=JP, ST=Ibaraki, L=Tsukuba, O=AIST, OU=ISRI, CN=Test CA
        Validity
            Not Before: Apr 14 06:38:19 2026 GMT
            Not After : Apr 14 06:38:19 2027 GMT
        Subject: C=JP, ST=Ibaraki, L=Tsukuba, O=AIST, OU=ISRI, CN=openrtm.org
        Subject Public Key Info:
            Public Key Algorithm: rsaEncryption
                Public-Key: (2048 bit)
                Modulus:
                    00:d4:ca:ac:48:fc:9b:5c:7b:c6:40:82:1d:9f:e7:
                    a4:52:9c:84:23:e5:26:39:86:9a:12:e8:4e:ee:9c:
                    72:de:56:04:94:c7:76:13:5a:d1:1f:9e:42:9f:c4:
                    db:09:9e:6f:69:a7:46:97:f3:e4:67:5c:35:c1:56:
                    9a:29:1a:c3:5e:83:5c:9e:c3:6b:65:05:13:67:7c:
                    d1:01:f1:a0:e9:9b:c1:1e:7e:29:ec:63:8f:a8:a0:
                    33:ae:39:2a:50:3f:75:58:fc:39:ed:66:1b:9a:ca:
                    94:b3:72:d2:9c:4c:53:c6:a5:cc:b8:46:1c:17:5c:
                    4f:f2:21:b5:11:83:f3:01:cf:aa:ad:fa:22:3a:79:
                    c7:92:8b:7c:5f:88:2d:b5:d8:99:cf:e5:28:92:ef:
                    f2:19:92:d2:19:01:c2:ca:57:13:02:88:57:80:dc:
                    43:34:9c:25:64:01:ad:46:72:23:2f:b0:e3:c2:ad:
                    2e:dd:fc:9a:be:df:3d:48:1e:50:99:c5:26:e6:1c:
                    5b:46:25:8e:49:46:03:e8:41:e1:e7:23:f2:20:54:
                    f4:d1:2a:e3:96:6c:2a:0f:3d:43:fb:c7:2a:9a:71:
                    8b:21:2f:cf:5a:1e:bd:32:a1:f8:5c:fd:13:8f:fb:
                    e0:78:44:4e:f1:4d:9f:ba:37:fa:77:42:3a:29:6f:
                    86:a1
                Exponent: 65537 (0x10001)
        X509v3 extensions:
            X509v3 Basic Constraints: 
                CA:FALSE
            X509v3 Subject Key Identifier: 
                74:75:CD:40:68:74:6E:DE:93:BE:41:CC:75:B6:3D:58:18:30:59:55
            X509v3 Authority Key Identifier: 
                91:CF:32:80:C7:75:CC:C4:8C:CA:15:03:73:5F:E8:E6:48:0D:C2:6C
    Signature Algorithm: sha256WithRSAEncryption
    Signature Value:
        21:6a:d4:4c:f4:41:d5:c2:ba:3a:7f:0f:c6:f7:34:c7:c2:0a:
        41:b6:5a:02:df:1f:6e:b6:3a:e9:e9:3a:79:5c:28:70:6c:3a:
        7c:46:65:c4:eb:f8:0a:88:6c:2e:71:28:29:31:65:56:1a:72:
        59:d9:0e:49:1f:93:a5:bc:c0:ca:6d:b9:34:40:15:1a:39:4d:
        46:9c:f2:36:16:41:74:52:ad:fb:c8:f6:97:da:2f:b4:0f:10:
        d6:be:f7:09:08:c8:4c:b1:44:04:7b:42:3d:df:f9:83:aa:78:
        b6:1d:77:32:7e:cc:0d:b8:79:10:96:b2:18:0d:0c:ed:04:2d:
        bc:2c:32:2c:c0:5a:5c:0f:36:03:d0:f2:74:7a:56:9e:5a:7b:
        e5:54:51:ec:51:31:92:bd:b8:db:14:e9:86:0f:27:83:04:7e:
        45:7c:de:ae:8b:7a:6d:80:3e:4e:46:af:87:cf:fb:84:68:10:
        08:c9:c8:aa:e9:58:7a:9b:12:7b:33:83:86:b6:e8:7c:64:e0:
        fe:2e:ab:65:ae:54:80:f4:d0:0f:3e:6c:35:82:f0:ce:58:8d:
        3f:8b:be:7d:7f:e5:7c:6b:3f:e7:e4:bf:16:6c:83:18:6c:ca:
        42:32:1b:86:cd:b1:2d:de:1f:a5:49:d7:b8:c1:14:fd:ae:4d:
        67:81:83:7e
-----BEGIN CERTIFICATE-----
MIIDjjCCAnagAwIBAgIBATANBgkqhkiG9w0BAQsFADBhMQswCQYDVQQGEwJKUDEQ
MA4GA1UECAwHSWJhcmFraTEQMA4GA1UEBwwHVHN1a3ViYTENMAsGA1UECgwEQUlT
VDENMAsGA1UECwwESVNSSTEQMA4GA1UEAwwHVGVzdCBDQTAeFw0yNjA0MTQwNjM4
MTlaFw0yNzA0MTQwNjM4MTlaMGUxCzAJBgNVBAYTAkpQMRAwDgYDVQQIDAdJYmFy
YWtpMRAwDgYDVQQHDAdUc3VrdWJhMQ0wCwYDVQQKDARBSVNUMQ0wCwYDVQQLDARJ
U1JJMRQwEgYDVQQDDAtvcGVucnRtLm9yZzCCASIwDQYJKoZIhvcNAQEBBQADggEP
ADCCAQoCggEBANTKrEj8m1x7xkCCHZ/npFKchCPlJjmGmhLoTu6cct5WBJTHdhNa
0R+eQp/E2wmeb2mnRpfz5GdcNcFWmikaw16DXJ7Da2UFE2d80QHxoOmbwR5+Kexj
j6igM645KlA/dVj8Oe1mG5rKlLNy0pxMU8alzLhGHBdcT/IhtRGD8wHPqq36Ijp5
x5KLfF+ILbXYmc/lKJLv8hmS0hkBwspXEwKIV4DcQzScJWQBrUZyIy+w48KtLt38
mr7fPUgeUJnFJuYcW0YljklGA+hB4ecj8iBU9NEq45ZsKg89Q/vHKppxiyEvz1oe
vTKh+Fz9E4/74HhETvFNn7o3+ndCOilvhqECAwEAAaNNMEswCQYDVR0TBAIwADAd
BgNVHQ4EFgQUdHXNQGh0bt6TvkHMdbY9WBgwWVUwHwYDVR0jBBgwFoAUkc8ygMd1
zMSMyhUDc1/o5kgNwmwwDQYJKoZIhvcNAQELBQADggEBACFq1Ez0QdXCujp/D8b3
NMfCCkG2WgLfH262OunpOnlcKHBsOnxGZcTr+AqIbC5xKCkxZVYaclnZDkkfk6W8
wMptuTRAFRo5TUac8jYWQXRSrfvI9pfaL7QPENa+9wkIyEyxRAR7Qj3f+YOqeLYd
dzJ+zA24eRCWshgNDO0ELbwsMizAWlwPNgPQ8nR6Vp5ae+VUUexRMZK9uNsU6YYP
J4MEfkV83q6Lem2APk5Gr4fP+4RoEAjJyKrpWHqbEnszg4a26Hxk4P4uq2WuVID0
0A8+bDWC8M5YjT+Lvn1/5XxrP+fkvxZsgxhsykIyG4bNsS3eH6VJ17jBFP2uTWeB
g34=
-----END CERTIFICATE-----
