Certificate:
    Data:
        Version: 1 (0x0)
        Serial Number:
            18:ed:25:1b:79:51:53:1e:d1:48:09:c3:c9:d3:d7:1b:f4:75:c2:36
        Signature Algorithm: ecdsa-with-SHA256
        Issuer: C=JP, ST=Tokyo, L=Tsukuba, Ibaraki, O=AIST, CN=OpenRTM-aist Main Test CA/emailAddress=n-miyamoto@aist.go.jp
        Validity
            Not Before: Feb  8 03:21:26 2022 GMT
            Not After : Feb  6 03:21:26 2032 GMT
        Subject: C=JP, ST=Tokyo, O=AIST, CN=AppName/emailAddress=n-miyamoto@aist.go.jp
        Subject Public Key Info:
            Public Key Algorithm: id-ecPublicKey
                Public-Key: (256 bit)
                pub:
                    04:d9:d5:40:fa:da:ad:5b:f6:14:80:27:a1:42:7a:
                    d7:4c:1f:5f:98:56:e2:9f:92:bc:d2:bf:7f:0c:a8:
                    13:cf:47:d7:18:8e:c4:f7:9e:d3:03:94:6e:03:70:
                    bd:45:53:5f:f5:8e:35:86:78:bb:98:b3:04:d6:ea:
                    da:05:78:72:02
                ASN1 OID: prime256v1
                NIST CURVE: P-256
    Signature Algorithm: ecdsa-with-SHA256
    Signature Value:
        30:45:02:21:00:e8:ef:2b:10:39:ba:dd:33:23:10:0b:30:27:
        01:77:e0:98:2e:62:93:44:7c:59:a8:f3:45:00:5b:54:bf:c7:
        9b:02:20:61:8b:21:a4:e2:df:ae:3a:e8:42:d7:8e:47:3d:c6:
        a1:cf:01:29:e1:b5:d8:d5:1e:c0:90:f7:67:0e:91:0e:c3
-----BEGIN CERTIFICATE-----
MIIB8TCCAZcCFBjtJRt5UVMe0UgJw8nT1xv0dcI2MAoGCCqGSM49BAMCMIGRMQsw
CQYDVQQGEwJKUDEOMAwGA1UECAwFVG9reW8xGTAXBgNVBAcMEFRzdWt1YmEsIEli
YXJha2kxDTALBgNVBAoMBEFJU1QxIjAgBgNVBAMMGU9wZW5SVE0tYWlzdCBNYWlu
IFRlc3QgQ0ExJDAiBgkqhkiG9w0BCQEWFW4tbWl5YW1vdG9AYWlzdC5nby5qcDAe
Fw0yMjAyMDgwMzIxMjZaFw0zMjAyMDYwMzIxMjZaMGQxCzAJBgNVBAYTAkpQMQ4w
DAYDVQQIDAVUb2t5bzENMAsGA1UECgwEQUlTVDEQMA4GA1UEAwwHQXBwTmFtZTEk
MCIGCSqGSIb3DQEJARYVbi1taXlhbW90b0BhaXN0LmdvLmpwMFkwEwYHKoZIzj0C
AQYIKoZIzj0DAQcDQgAE2dVA+tqtW/YUgCehQnrXTB9fmFbin5K80r9/DKgTz0fX
GI7E957TA5RuA3C9RVNf9Y41hni7mLME1uraBXhyAjAKBggqhkjOPQQDAgNIADBF
AiEA6O8rEDm63TMjEAswJwF34JguYpNEfFmo80UAW1S/x5sCIGGLIaTi36466ELX
jkc9xqHPASnhtdjVHsCQ92cOkQ7D
-----END CERTIFICATE-----
